target datalayout = "e-m:e-p270:32:32-p271:32:32-p272:64:64-i64:64-i128:128-f80:128-n8:16:32:64-S128"
target triple = "x86_64-pc-linux-gnu"

%struct.network_callerid_msg = type { [16 x i8], [16 x i8], i32, i32, i32 }

@stderr = external global ptr, align 8
@.str.53 = private unnamed_addr constant [30 x i8] c"Address family not an integer\00", align 1
@.str.54 = private unnamed_addr constant [27 x i8] c"Invalid address family: %d\00", align 1
@.str.55 = private unnamed_addr constant [26 x i8] c"inet_pton failed for '%s'\00", align 1
@.str.56 = private unnamed_addr constant [27 x i8] c"Source port not an integer\00", align 1
@.str.57 = private unnamed_addr constant [45 x i8] c"scontrol_callerid: inet_pton failed for '%s'\00", align 1
@.str.58 = private unnamed_addr constant [32 x i8] c"Destination port not an integer\00", align 1
@.str.59 = private unnamed_addr constant [77 x i8] c"slurm_network_callerid: unable to retrieve callerid data from remote slurmd\0A\00", align 1
@.str.60 = private unnamed_addr constant [53 x i8] c"slurm_network_callerid: remote job id indeterminate\0A\00", align 1
@.str.61 = private unnamed_addr constant [7 x i8] c"%u %s\0A\00", align 1

; Function Attrs: nounwind uwtable
define dso_local i32 @scontrol_callerid(i32 noundef %0, ptr noundef %1) #0 {
  %3 = alloca i32, align 4
  %4 = alloca i32, align 4
  %5 = alloca ptr, align 8
  %6 = alloca i32, align 4
  %7 = alloca i32, align 4
  %8 = alloca [16 x i8], align 16
  %9 = alloca [16 x i8], align 16
  %10 = alloca i32, align 4
  %11 = alloca i32, align 4
  %12 = alloca i32, align 4
  %13 = alloca %struct.network_callerid_msg, align 8
  %14 = alloca [64 x i8], align 16
  %15 = alloca ptr, align 8
  %16 = alloca i32, align 4
  store i32 %0, ptr %4, align 4
  store ptr %1, ptr %5, align 8
  call void @llvm.lifetime.start.p0(i64 4, ptr %6) #9
  call void @llvm.lifetime.start.p0(i64 4, ptr %7) #9
  store i32 4, ptr %7, align 4
  call void @llvm.lifetime.start.p0(i64 16, ptr %8) #9
  call void @llvm.lifetime.start.p0(i64 16, ptr %9) #9
  call void @llvm.lifetime.start.p0(i64 4, ptr %10) #9
  call void @llvm.lifetime.start.p0(i64 4, ptr %11) #9
  call void @llvm.lifetime.start.p0(i64 4, ptr %12) #9
  call void @llvm.lifetime.start.p0(i64 44, ptr %13) #9
  call void @llvm.lifetime.start.p0(i64 64, ptr %14) #9
  call void @llvm.lifetime.start.p0(i64 8, ptr %15) #9
  %17 = load i32, ptr %4, align 4
  %18 = icmp eq i32 %17, 5
  br i1 %18, label %19, label %36

19:                                               ; preds = %2
  %20 = load ptr, ptr %5, align 8
  %21 = getelementptr inbounds ptr, ptr %20, i64 4
  %22 = load ptr, ptr %21, align 8
  %23 = call i64 @strtoul(ptr noundef %22, ptr noundef %15, i32 noundef 0) #9
  %24 = trunc i64 %23 to i32
  store i32 %24, ptr %7, align 4
  %25 = load ptr, ptr %15, align 8
  %26 = icmp ne ptr %25, null
  br i1 %26, label %27, label %35

27:                                               ; preds = %19
  %28 = load ptr, ptr %15, align 8
  %29 = getelementptr inbounds i8, ptr %28, i64 0
  %30 = load i8, ptr %29, align 1
  %31 = sext i8 %30 to i32
  %32 = icmp ne i32 %31, 0
  br i1 %32, label %33, label %35

33:                                               ; preds = %27
  %34 = call i32 (ptr, ...) @error(ptr noundef @.str.53)
  store i32 -1, ptr %3, align 4
  store i32 1, ptr %16, align 4
  br label %135

35:                                               ; preds = %27, %19
  br label %36

36:                                               ; preds = %35, %2
  %37 = load i32, ptr %7, align 4
  %38 = icmp ne i32 %37, 4
  br i1 %38, label %39, label %45

39:                                               ; preds = %36
  %40 = load i32, ptr %7, align 4
  %41 = icmp ne i32 %40, 6
  br i1 %41, label %42, label %45

42:                                               ; preds = %39
  %43 = load i32, ptr %7, align 4
  %44 = call i32 (ptr, ...) @error(ptr noundef @.str.54, i32 noundef %43)
  store i32 -1, ptr %3, align 4
  store i32 1, ptr %16, align 4
  br label %135

45:                                               ; preds = %39, %36
  %46 = load i32, ptr %7, align 4
  %47 = icmp eq i32 %46, 4
  %48 = select i1 %47, i32 2, i32 10
  store i32 %48, ptr %6, align 4
  %49 = load i32, ptr %6, align 4
  %50 = load ptr, ptr %5, align 8
  %51 = getelementptr inbounds ptr, ptr %50, i64 0
  %52 = load ptr, ptr %51, align 8
  %53 = getelementptr inbounds [16 x i8], ptr %8, i64 0, i64 0
  %54 = call i32 @inet_pton(i32 noundef %49, ptr noundef %52, ptr noundef %53) #9
  %55 = icmp ne i32 %54, 0
  br i1 %55, label %61, label %56

56:                                               ; preds = %45
  %57 = load ptr, ptr %5, align 8
  %58 = getelementptr inbounds ptr, ptr %57, i64 0
  %59 = load ptr, ptr %58, align 8
  %60 = call i32 (ptr, ...) @error(ptr noundef @.str.55, ptr noundef %59)
  store i32 -1, ptr %3, align 4
  store i32 1, ptr %16, align 4
  br label %135

61:                                               ; preds = %45
  %62 = load ptr, ptr %5, align 8
  %63 = getelementptr inbounds ptr, ptr %62, i64 1
  %64 = load ptr, ptr %63, align 8
  %65 = call i64 @strtoul(ptr noundef %64, ptr noundef %15, i32 noundef 0) #9
  %66 = trunc i64 %65 to i32
  store i32 %66, ptr %10, align 4
  %67 = load ptr, ptr %15, align 8
  %68 = icmp ne ptr %67, null
  br i1 %68, label %69, label %77

69:                                               ; preds = %61
  %70 = load ptr, ptr %15, align 8
  %71 = getelementptr inbounds i8, ptr %70, i64 0
  %72 = load i8, ptr %71, align 1
  %73 = sext i8 %72 to i32
  %74 = icmp ne i32 %73, 0
  br i1 %74, label %75, label %77

75:                                               ; preds = %69
  %76 = call i32 (ptr, ...) @error(ptr noundef @.str.56)
  store i32 -1, ptr %3, align 4
  store i32 1, ptr %16, align 4
  br label %135

77:                                               ; preds = %69, %61
  %78 = load i32, ptr %6, align 4
  %79 = load ptr, ptr %5, align 8
  %80 = getelementptr inbounds ptr, ptr %79, i64 2
  %81 = load ptr, ptr %80, align 8
  %82 = getelementptr inbounds [16 x i8], ptr %9, i64 0, i64 0
  %83 = call i32 @inet_pton(i32 noundef %78, ptr noundef %81, ptr noundef %82) #9
  %84 = icmp ne i32 %83, 0
  br i1 %84, label %90, label %85

85:                                               ; preds = %77
  %86 = load ptr, ptr %5, align 8
  %87 = getelementptr inbounds ptr, ptr %86, i64 2
  %88 = load ptr, ptr %87, align 8
  %89 = call i32 (ptr, ...) @error(ptr noundef @.str.57, ptr noundef %88)
  store i32 -1, ptr %3, align 4
  store i32 1, ptr %16, align 4
  br label %135

90:                                               ; preds = %77
  %91 = load ptr, ptr %5, align 8
  %92 = getelementptr inbounds ptr, ptr %91, i64 3
  %93 = load ptr, ptr %92, align 8
  %94 = call i64 @strtoul(ptr noundef %93, ptr noundef %15, i32 noundef 0) #9
  %95 = trunc i64 %94 to i32
  store i32 %95, ptr %11, align 4
  %96 = load ptr, ptr %15, align 8
  %97 = icmp ne ptr %96, null
  br i1 %97, label %98, label %106

98:                                               ; preds = %90
  %99 = load ptr, ptr %15, align 8
  %100 = getelementptr inbounds i8, ptr %99, i64 0
  %101 = load i8, ptr %100, align 1
  %102 = sext i8 %101 to i32
  %103 = icmp ne i32 %102, 0
  br i1 %103, label %104, label %106

104:                                              ; preds = %98
  %105 = call i32 (ptr, ...) @error(ptr noundef @.str.58)
  store i32 -1, ptr %3, align 4
  store i32 1, ptr %16, align 4
  br label %135

106:                                              ; preds = %98, %90
  %107 = getelementptr inbounds nuw %struct.network_callerid_msg, ptr %13, i32 0, i32 0
  %108 = getelementptr inbounds [16 x i8], ptr %107, i64 0, i64 0
  %109 = getelementptr inbounds [16 x i8], ptr %8, i64 0, i64 0
  call void @llvm.memcpy.p0.p0.i64(ptr align 4 %108, ptr align 16 %109, i64 16, i1 false)
  %110 = getelementptr inbounds nuw %struct.network_callerid_msg, ptr %13, i32 0, i32 1
  %111 = getelementptr inbounds [16 x i8], ptr %110, i64 0, i64 0
  %112 = getelementptr inbounds [16 x i8], ptr %9, i64 0, i64 0
  call void @llvm.memcpy.p0.p0.i64(ptr align 4 %111, ptr align 16 %112, i64 16, i1 false)
  %113 = load i32, ptr %10, align 4
  %114 = getelementptr inbounds nuw %struct.network_callerid_msg, ptr %13, i32 0, i32 2
  store i32 %113, ptr %114, align 4
  %115 = load i32, ptr %11, align 4
  %116 = getelementptr inbounds nuw %struct.network_callerid_msg, ptr %13, i32 0, i32 3
  store i32 %115, ptr %116, align 4
  %117 = load i32, ptr %6, align 4
  %118 = getelementptr inbounds nuw %struct.network_callerid_msg, ptr %13, i32 0, i32 4
  store i32 %117, ptr %118, align 4
  %119 = getelementptr inbounds [64 x i8], ptr %14, i64 0, i64 0
  %120 = call i32 @slurm_network_callerid(ptr noundef byval(%struct.network_callerid_msg) align 8 %13, ptr noundef %12, ptr noundef %119, i32 noundef 64)
  %121 = icmp ne i32 %120, 0
  br i1 %121, label %122, label %125

122:                                              ; preds = %106
  %123 = load ptr, ptr @stderr, align 8
  %124 = call i32 (ptr, ptr, ...) @fprintf(ptr noundef %123, ptr noundef @.str.59) #9
  store i32 -1, ptr %3, align 4
  store i32 1, ptr %16, align 4
  br label %135

125:                                              ; preds = %106
  %126 = load i32, ptr %12, align 4
  %127 = icmp eq i32 %126, -2
  br i1 %127, label %128, label %131

128:                                              ; preds = %125
  %129 = load ptr, ptr @stderr, align 8
  %130 = call i32 (ptr, ptr, ...) @fprintf(ptr noundef %129, ptr noundef @.str.60) #9
  store i32 -1, ptr %3, align 4
  store i32 1, ptr %16, align 4
  br label %135

131:                                              ; preds = %125
  %132 = load i32, ptr %12, align 4
  %133 = getelementptr inbounds [64 x i8], ptr %14, i64 0, i64 0
  %134 = call i32 (ptr, ...) @printf(ptr noundef @.str.61, i32 noundef %132, ptr noundef %133)
  store i32 0, ptr %3, align 4
  store i32 1, ptr %16, align 4
  br label %135

135:                                              ; preds = %131, %128, %122, %104, %85, %75, %56, %42, %33
  call void @llvm.lifetime.end.p0(i64 8, ptr %15) #9
  call void @llvm.lifetime.end.p0(i64 64, ptr %14) #9
  call void @llvm.lifetime.end.p0(i64 44, ptr %13) #9
  call void @llvm.lifetime.end.p0(i64 4, ptr %12) #9
  call void @llvm.lifetime.end.p0(i64 4, ptr %11) #9
  call void @llvm.lifetime.end.p0(i64 4, ptr %10) #9
  call void @llvm.lifetime.end.p0(i64 16, ptr %9) #9
  call void @llvm.lifetime.end.p0(i64 16, ptr %8) #9
  call void @llvm.lifetime.end.p0(i64 4, ptr %7) #9
  call void @llvm.lifetime.end.p0(i64 4, ptr %6) #9
  %136 = load i32, ptr %3, align 4
  ret i32 %136
}