; Function Attrs: nounwind uwtable
define dso_local range(i32 -1, 1) i32 @scontrol_callerid(i32 noundef %0, ptr noundef readonly captures(none) %1) local_unnamed_addr #0 {
  %3 = alloca [16 x i8], align 16
  %4 = alloca [16 x i8], align 16
  %5 = alloca i32, align 4
  %6 = alloca %struct.network_callerid_msg, align 8
  %7 = alloca [64 x i8], align 16
  %8 = alloca ptr, align 8
  call void @llvm.lifetime.start.p0(i64 16, ptr nonnull %3) #16
  call void @llvm.lifetime.start.p0(i64 16, ptr nonnull %4) #16
  call void @llvm.lifetime.start.p0(i64 4, ptr nonnull %5) #16
  call void @llvm.lifetime.start.p0(i64 44, ptr nonnull %6) #16
  call void @llvm.lifetime.start.p0(i64 64, ptr nonnull %7) #16
  call void @llvm.lifetime.start.p0(i64 8, ptr nonnull %8) #16
  %9 = icmp eq i32 %0, 5
  br i1 %9, label %10, label %.thread34

10:                                               ; preds = %2
  %11 = getelementptr inbounds nuw i8, ptr %1, i64 32
  %12 = load ptr, ptr %11, align 8
  %13 = call i64 @strtoul(ptr noundef %12, ptr noundef nonnull %8, i32 noundef 0) #16
  %.fr37 = freeze i64 %13
  %14 = trunc i64 %.fr37 to i32
  %15 = load ptr, ptr %8, align 8
  %.not = icmp eq ptr %15, null
  br i1 %.not, label %20, label %16

16:                                               ; preds = %10
  %17 = load i8, ptr %15, align 1
  %.not23 = icmp eq i8 %17, 0
  br i1 %.not23, label %20, label %18

18:                                               ; preds = %16
  %19 = tail call i32 (ptr, ...) @error(ptr noundef nonnull @.str.53) #16
  br label %77

20:                                               ; preds = %10, %16
  %21 = and i32 %14, -3
  %or.cond.not = icmp eq i32 %21, 4
  br i1 %or.cond.not, label %24, label %22

22:                                               ; preds = %20
  %23 = tail call i32 (ptr, ...) @error(ptr noundef nonnull @.str.54, i32 noundef %14) #16
  br label %77

24:                                               ; preds = %20
  %25 = icmp eq i32 %14, 4
  br i1 %25, label %.thread34, label %26

.thread34:                                        ; preds = %2, %24
  br label %26

26:                                               ; preds = %24, %.thread34
  %27 = phi i32 [ 2, %.thread34 ], [ 10, %24 ]
  %28 = load ptr, ptr %1, align 8
  %29 = call i32 @inet_pton(i32 noundef %27, ptr noundef %28, ptr noundef nonnull %3) #16
  %.not24 = icmp eq i32 %29, 0
  br i1 %.not24, label %30, label %33

30:                                               ; preds = %26
  %31 = load ptr, ptr %1, align 8
  %32 = call i32 (ptr, ...) @error(ptr noundef nonnull @.str.55, ptr noundef %31) #16
  br label %77

33:                                               ; preds = %26
  %34 = getelementptr inbounds nuw i8, ptr %1, i64 8
  %35 = load ptr, ptr %34, align 8
  %36 = call i64 @strtoul(ptr noundef %35, ptr noundef nonnull %8, i32 noundef 0) #16
  %37 = trunc i64 %36 to i32
  %38 = load ptr, ptr %8, align 8
  %.not25 = icmp eq ptr %38, null
  br i1 %.not25, label %43, label %39

39:                                               ; preds = %33
  %40 = load i8, ptr %38, align 1
  %.not26 = icmp eq i8 %40, 0
  br i1 %.not26, label %43, label %41

41:                                               ; preds = %39
  %42 = call i32 (ptr, ...) @error(ptr noundef nonnull @.str.56) #16
  br label %77

43:                                               ; preds = %39, %33
  %44 = getelementptr inbounds nuw i8, ptr %1, i64 16
  %45 = load ptr, ptr %44, align 8
  %46 = call i32 @inet_pton(i32 noundef %27, ptr noundef %45, ptr noundef nonnull %4) #16
  %.not27 = icmp eq i32 %46, 0
  br i1 %.not27, label %47, label %50

47:                                               ; preds = %43
  %48 = load ptr, ptr %44, align 8
  %49 = call i32 (ptr, ...) @error(ptr noundef nonnull @.str.57, ptr noundef %48) #16
  br label %77

50:                                               ; preds = %43
  %51 = getelementptr inbounds nuw i8, ptr %1, i64 24
  %52 = load ptr, ptr %51, align 8
  %53 = call i64 @strtoul(ptr noundef %52, ptr noundef nonnull %8, i32 noundef 0) #16
  %54 = trunc i64 %53 to i32
  %55 = load ptr, ptr %8, align 8
  %.not28 = icmp eq ptr %55, null
  br i1 %.not28, label %60, label %56

56:                                               ; preds = %50
  %57 = load i8, ptr %55, align 1
  %.not29 = icmp eq i8 %57, 0
  br i1 %.not29, label %60, label %58

58:                                               ; preds = %56
  %59 = call i32 (ptr, ...) @error(ptr noundef nonnull @.str.58) #16
  br label %77

60:                                               ; preds = %56, %50
  call void @llvm.memcpy.p0.p0.i64(ptr noundef nonnull align 8 dereferenceable(16) %6, ptr noundef nonnull align 16 dereferenceable(16) %3, i64 16, i1 false)
  %61 = getelementptr inbounds nuw i8, ptr %6, i64 16
  call void @llvm.memcpy.p0.p0.i64(ptr noundef nonnull align 8 dereferenceable(16) %61, ptr noundef nonnull align 16 dereferenceable(16) %4, i64 16, i1 false)
  %62 = getelementptr inbounds nuw i8, ptr %6, i64 32
  store i32 %37, ptr %62, align 8
  %63 = getelementptr inbounds nuw i8, ptr %6, i64 36
  store i32 %54, ptr %63, align 4
  %64 = getelementptr inbounds nuw i8, ptr %6, i64 40
  store i32 %27, ptr %64, align 8
  %65 = call i32 @slurm_network_callerid(ptr noundef nonnull byval(%struct.network_callerid_msg) align 8 %6, ptr noundef nonnull %5, ptr noundef nonnull %7, i32 noundef 64) #16
  %.not30 = icmp eq i32 %65, 0
  br i1 %.not30, label %69, label %66

66:                                               ; preds = %60
  %67 = load ptr, ptr @stderr, align 8
  %68 = call i64 @fwrite(ptr nonnull @.str.59, i64 76, i64 1, ptr %67) #18
  br label %77

69:                                               ; preds = %60
  %70 = load i32, ptr %5, align 4
  %71 = icmp eq i32 %70, -2
  br i1 %71, label %72, label %75

72:                                               ; preds = %69
  %73 = load ptr, ptr @stderr, align 8
  %74 = call i64 @fwrite(ptr nonnull @.str.60, i64 52, i64 1, ptr %73) #18
  br label %77

75:                                               ; preds = %69
  %76 = call i32 (ptr, ...) @printf(ptr noundef nonnull dereferenceable(1) @.str.61, i32 noundef %70, ptr noundef nonnull %7)
  br label %77

77:                                               ; preds = %75, %72, %66, %58, %47, %41, %30, %22, %18
  %.0 = phi i32 [ -1, %18 ], [ -1, %22 ], [ -1, %41 ], [ -1, %58 ], [ -1, %66 ], [ -1, %72 ], [ 0, %75 ], [ -1, %47 ], [ -1, %30 ]
  call void @llvm.lifetime.end.p0(i64 8, ptr nonnull %8) #16
  call void @llvm.lifetime.end.p0(i64 64, ptr nonnull %7) #16
  call void @llvm.lifetime.end.p0(i64 44, ptr nonnull %6) #16
  call void @llvm.lifetime.end.p0(i64 4, ptr nonnull %5) #16
  call void @llvm.lifetime.end.p0(i64 16, ptr nonnull %4) #16
  call void @llvm.lifetime.end.p0(i64 16, ptr nonnull %3) #16
  ret i32 %.0
}